target datalayout = "e-m:e-p270:32:32-p271:32:32-p272:64:64-i64:64-i128:128-f80:128-n8:16:32:64-S128"
target triple = "x86_64-pc-linux-gnu"

; Function Attrs: nounwind uwtable
define dso_local zeroext i1 @checkSeek(ptr noundef %0) #0 {
  %2 = alloca i1, align 1
  %3 = alloca ptr, align 8
  %4 = alloca i64, align 8
  %5 = alloca i32, align 4
  store ptr %0, ptr %3, align 8
  call void @llvm.lifetime.start.p0(i64 8, ptr %4) #11
  %6 = load ptr, ptr %3, align 8
  %7 = call i64 @ftello(ptr noundef %6)
  store i64 %7, ptr %4, align 8
  %8 = load i64, ptr %4, align 8
  %9 = icmp slt i64 %8, 0
  br i1 %9, label %10, label %11

10:                                               ; preds = %1
  store i1 false, ptr %2, align 1
  store i32 1, ptr %5, align 4
  br label %18

11:                                               ; preds = %1
  %12 = load ptr, ptr %3, align 8
  %13 = load i64, ptr %4, align 8
  %14 = call i32 @fseeko(ptr noundef %12, i64 noundef %13, i32 noundef 0)
  %15 = icmp ne i32 %14, 0
  br i1 %15, label %16, label %17

16:                                               ; preds = %11
  store i1 false, ptr %2, align 1
  store i32 1, ptr %5, align 4
  br label %18

17:                                               ; preds = %11
  store i1 true, ptr %2, align 1
  store i32 1, ptr %5, align 4
  br label %18

18:                                               ; preds = %17, %16, %10
  call void @llvm.lifetime.end.p0(i64 8, ptr %4) #11
  %19 = load i1, ptr %2, align 1
  ret i1 %19
}