; Function Attrs: nofree nounwind uwtable
define dso_local noundef zeroext i1 @checkSeek(ptr noundef captures(none) %0) local_unnamed_addr #16 {
  %2 = tail call i64 @ftello(ptr noundef %0)
  %3 = icmp slt i64 %2, 0
  br i1 %3, label %6, label %4

4:                                                ; preds = %1
  %5 = tail call i32 @fseeko(ptr noundef %0, i64 noundef %2, i32 noundef 0)
  %.not = icmp eq i32 %5, 0
  br label %6

6:                                                ; preds = %4, %1
  %.0 = phi i1 [ false, %1 ], [ %.not, %4 ]
  ret i1 %.0
}